target datalayout = "e-m:e-p270:32:32-p271:32:32-p272:64:64-i64:64-i128:128-f80:128-n8:16:32:64-S128"
target triple = "x86_64-pc-linux-gnu"

%"class.base::FilePath" = type { %"class.std::__cxx11::basic_string" }
%"class.std::__cxx11::basic_string" = type { %"struct.std::__cxx11::basic_string<char>::_Alloc_hider", i64, %union.anon }
%"struct.std::__cxx11::basic_string<char>::_Alloc_hider" = type { ptr }
%union.anon = type { i64, [8 x i8] }

; Function Attrs: mustprogress nounwind uwtable
define linkonce_odr void @_ZN4base18ThreadRestrictions15AssertIOAllowedEv() #1 comdat align 2 {
  ret void
}

; Function Attrs: mustprogress uwtable
define noundef zeroext i1 @_ZN4base19CreateTemporaryFileEPNS_8FilePathE(ptr noundef %0) #0 personality ptr @__gxx_personality_v0 {
  %2 = alloca i1, align 1
  %3 = alloca ptr, align 8
  %4 = alloca %"class.base::FilePath", align 8
  %5 = alloca ptr, align 8
  %6 = alloca i32, align 4
  %7 = alloca i32, align 4
  %8 = alloca i32, align 4
  %9 = alloca %"class.base::FilePath", align 8
  store ptr %0, ptr %3, align 8, !tbaa !3
  call void @_ZN4base18ThreadRestrictions15AssertIOAllowedEv()
  call void @llvm.lifetime.start.p0(i64 32, ptr %4) #10
  call void @_ZN4base8FilePathC1Ev(ptr noundef nonnull align 8 dereferenceable(32) %4)
  %10 = invoke noundef zeroext i1 @_ZN4base10GetTempDirEPNS_8FilePathE(ptr noundef %4)
          to label %11 unwind label %13

11:                                               ; preds = %1
  br i1 %10, label %17, label %12

12:                                               ; preds = %11
  store i1 false, ptr %2, align 1
  store i32 1, ptr %7, align 4
  br label %39

13:                                               ; preds = %1
  %14 = landingpad { ptr, i32 }
          cleanup
  %15 = extractvalue { ptr, i32 } %14, 0
  store ptr %15, ptr %5, align 8
  %16 = extractvalue { ptr, i32 } %14, 1
  store i32 %16, ptr %6, align 4
  br label %41

17:                                               ; preds = %11
  call void @llvm.lifetime.start.p0(i64 4, ptr %8) #10
  invoke void @_ZN4base8FilePathC1ERKS0_(ptr noundef nonnull align 8 dereferenceable(32) %9, ptr noundef nonnull align 8 dereferenceable(32) %4)
          to label %18 unwind label %25

18:                                               ; preds = %17
  %19 = load ptr, ptr %3, align 8, !tbaa !3
  %20 = invoke noundef i32 @_ZN4base12_GLOBAL__N_131CreateAndOpenFdForTemporaryFileENS_8FilePathEPS1_(ptr noundef %9, ptr noundef %19)
          to label %21 unwind label %29

21:                                               ; preds = %18
  call void @_ZN4base8FilePathD1Ev(ptr noundef nonnull align 8 dereferenceable(32) %9) #10
  store i32 %20, ptr %8, align 4, !tbaa !20
  %22 = load i32, ptr %8, align 4, !tbaa !20
  %23 = icmp slt i32 %22, 0
  br i1 %23, label %24, label %33

24:                                               ; preds = %21
  store i1 false, ptr %2, align 1
  store i32 1, ptr %7, align 4
  br label %37

25:                                               ; preds = %33, %17
  %26 = landingpad { ptr, i32 }
          cleanup
  %27 = extractvalue { ptr, i32 } %26, 0
  store ptr %27, ptr %5, align 8
  %28 = extractvalue { ptr, i32 } %26, 1
  store i32 %28, ptr %6, align 4
  br label %38

29:                                               ; preds = %18
  %30 = landingpad { ptr, i32 }
          cleanup
  %31 = extractvalue { ptr, i32 } %30, 0
  store ptr %31, ptr %5, align 8
  %32 = extractvalue { ptr, i32 } %30, 1
  store i32 %32, ptr %6, align 4
  call void @_ZN4base8FilePathD1Ev(ptr noundef nonnull align 8 dereferenceable(32) %9) #10
  br label %38

33:                                               ; preds = %21
  %34 = load i32, ptr %8, align 4, !tbaa !20
  %35 = invoke i32 @close(i32 noundef %34)
          to label %36 unwind label %25

36:                                               ; preds = %33
  store i1 true, ptr %2, align 1
  store i32 1, ptr %7, align 4
  br label %37

37:                                               ; preds = %36, %24
  call void @llvm.lifetime.end.p0(i64 4, ptr %8) #10
  br label %39

38:                                               ; preds = %29, %25
  call void @llvm.lifetime.end.p0(i64 4, ptr %8) #10
  br label %41

39:                                               ; preds = %37, %12
  call void @_ZN4base8FilePathD1Ev(ptr noundef nonnull align 8 dereferenceable(32) %4) #10
  call void @llvm.lifetime.end.p0(i64 32, ptr %4) #10
  %40 = load i1, ptr %2, align 1
  ret i1 %40

41:                                               ; preds = %38, %13
  call void @_ZN4base8FilePathD1Ev(ptr noundef nonnull align 8 dereferenceable(32) %4) #10
  call void @llvm.lifetime.end.p0(i64 32, ptr %4) #10
  br label %42

42:                                               ; preds = %41
  %43 = load ptr, ptr %5, align 8
  %44 = load i32, ptr %6, align 4
  %45 = insertvalue { ptr, i32 } poison, ptr %43, 0
  %46 = insertvalue { ptr, i32 } %45, i32 %44, 1
  resume { ptr, i32 } %46
}