; Function Attrs: mustprogress uwtable
define noundef zeroext i1 @_ZN4base19CreateTemporaryFileEPNS_8FilePathE(ptr noundef %0) local_unnamed_addr #0 personality ptr @__gxx_personality_v0 {
  %2 = alloca %"class.base::FilePath", align 8
  %3 = alloca %"class.base::FilePath", align 8
  call void @llvm.lifetime.start.p0(i64 32, ptr nonnull %2) #24
  call void @_ZN4base8FilePathC1Ev(ptr noundef nonnull align 8 dereferenceable(32) %2)
  %4 = invoke noundef zeroext i1 @_ZN4base10GetTempDirEPNS_8FilePathE(ptr noundef nonnull %2)
          to label %7 unwind label %5

5:                                                ; preds = %1
  %6 = landingpad { ptr, i32 }
          cleanup
  br label %19

7:                                                ; preds = %1
  invoke void @_ZN4base8FilePathC1ERKS0_(ptr noundef nonnull align 8 dereferenceable(32) %3, ptr noundef nonnull align 8 dereferenceable(32) %2)
          to label %8 unwind label %12

8:                                                ; preds = %7
  %9 = invoke fastcc noundef i32 @_ZN4base12_GLOBAL__N_131CreateAndOpenFdForTemporaryFileENS_8FilePathEPS1_(ptr noundef %3, ptr noundef %0)
          to label %10 unwind label %14

10:                                               ; preds = %8
  call void @_ZN4base8FilePathD1Ev(ptr noundef nonnull align 8 dereferenceable(32) %3) #24
  %11 = icmp sgt i32 %9, -1
  br i1 %11, label %16, label %18

12:                                               ; preds = %16, %7
  %13 = landingpad { ptr, i32 }
          cleanup
  br label %19

14:                                               ; preds = %8
  %15 = landingpad { ptr, i32 }
          cleanup
  call void @_ZN4base8FilePathD1Ev(ptr noundef nonnull align 8 dereferenceable(32) %3) #24
  br label %19

16:                                               ; preds = %10
  %17 = invoke i32 @close(i32 noundef %9)
          to label %18 unwind label %12

18:                                               ; preds = %10, %16
  call void @_ZN4base8FilePathD1Ev(ptr noundef nonnull align 8 dereferenceable(32) %2) #24
  call void @llvm.lifetime.end.p0(i64 32, ptr nonnull %2) #24
  ret i1 %11

19:                                               ; preds = %12, %14, %5
  %.pn.pn = phi { ptr, i32 } [ %6, %5 ], [ %13, %12 ], [ %15, %14 ]
  call void @_ZN4base8FilePathD1Ev(ptr noundef nonnull align 8 dereferenceable(32) %2) #24
  call void @llvm.lifetime.end.p0(i64 32, ptr nonnull %2) #24
  resume { ptr, i32 } %.pn.pn
}